target datalayout = "e-m:e-p270:32:32-p271:32:32-p272:64:64-i64:64-i128:128-f80:128-n8:16:32:64-S128"
target triple = "x86_64-pc-linux-gnu"

%"struct.llvm::detail::PunnedPointer.343" = type { [8 x i8] }
%"struct.clang::DeductionFailureInfo" = type { i16, ptr, [32 x i8] }
%"class.llvm::PointerUnion.426" = type { %"class.llvm::pointer_union_detail::PointerUnionMembers.427" }
%"class.llvm::pointer_union_detail::PointerUnionMembers.427" = type { %"class.llvm::pointer_union_detail::PointerUnionMembers.428" }
%"class.llvm::pointer_union_detail::PointerUnionMembers.428" = type { %"class.llvm::pointer_union_detail::PointerUnionMembers.429" }
%"class.llvm::pointer_union_detail::PointerUnionMembers.429" = type { %"class.llvm::pointer_union_detail::PointerUnionMembers.430" }
%"class.llvm::pointer_union_detail::PointerUnionMembers.430" = type { %"class.llvm::PointerIntPair.431" }
%"class.llvm::PointerIntPair.431" = type { %"struct.llvm::detail::PunnedPointer.343" }
%"class.clang::TemplateArgument" = type { %union.anon.432 }
%union.anon.432 = type { %"struct.clang::TemplateArgument::DA" }
%"struct.clang::TemplateArgument::DA" = type { i32, ptr, ptr }
%"struct.(anonymous namespace)::DFIArguments" = type { %"class.clang::TemplateArgument", %"class.clang::TemplateArgument" }
%"struct.(anonymous namespace)::DFIParamWithArguments" = type { %"struct.(anonymous namespace)::DFIArguments", %"class.llvm::PointerUnion.426" }

; Function Attrs: mustprogress nounwind uwtable
define linkonce_odr hidden void @_ZN4llvm20pointer_union_detail19PointerUnionMembersINS_12PointerUnionIJPN5clang20TemplateTypeParmDeclEPNS3_23NonTypeTemplateParmDeclEPNS3_24TemplateTemplateParmDeclEEEENS_14PointerIntPairIPvLj2EiNS0_22PointerUnionUIntTraitsIJS5_S7_S9_EEENS_18PointerIntPairInfoISC_Lj2ESE_EEEELi3EJEEC2Ev(ptr noundef nonnull align 8 dereferenceable(8) %0) unnamed_addr #0 comdat align 2 {
  %2 = alloca ptr, align 8
  store ptr %0, ptr %2, align 8
  %3 = load ptr, ptr %2, align 8
  %4 = getelementptr inbounds nuw %"class.llvm::pointer_union_detail::PointerUnionMembers.430", ptr %3, i32 0, i32 0
  call void @_ZN4llvm14PointerIntPairIPvLj2EiNS_20pointer_union_detail22PointerUnionUIntTraitsIJPN5clang20TemplateTypeParmDeclEPNS4_23NonTypeTemplateParmDeclEPNS4_24TemplateTemplateParmDeclEEEENS_18PointerIntPairInfoIS1_Lj2ESB_EEEC2Ev(ptr noundef nonnull align 8 dereferenceable(8) %4)
  ret void
}

; Function Attrs: mustprogress nounwind uwtable
define linkonce_odr hidden noundef nonnull align 8 dereferenceable(8) ptr @_ZN4llvm6detail13PunnedPointerIPvEaSEl(ptr noundef nonnull align 8 dereferenceable(8) %0, i64 noundef %1) #0 comdat align 2 {
  %3 = alloca ptr, align 8
  %4 = alloca i64, align 8
  store ptr %0, ptr %3, align 8
  store i64 %1, ptr %4, align 8
  %5 = load ptr, ptr %3, align 8
  %6 = getelementptr inbounds nuw %"struct.llvm::detail::PunnedPointer.343", ptr %5, i32 0, i32 0
  %7 = getelementptr inbounds [8 x i8], ptr %6, i64 0, i64 0
  call void @llvm.memcpy.p0.p0.i64(ptr align 8 %7, ptr align 8 %4, i64 8, i1 false)
  ret ptr %5
}

; Function Attrs: mustprogress nounwind uwtable
define linkonce_odr hidden void @_ZN4llvm6detail13PunnedPointerIPvEC2El(ptr noundef nonnull align 8 dereferenceable(8) %0, i64 noundef %1) unnamed_addr #0 comdat align 2 {
  %3 = alloca ptr, align 8
  %4 = alloca i64, align 8
  store ptr %0, ptr %3, align 8
  store i64 %1, ptr %4, align 8
  %5 = load ptr, ptr %3, align 8
  %6 = load i64, ptr %4, align 8
  %7 = call noundef nonnull align 8 dereferenceable(8) ptr @_ZN4llvm6detail13PunnedPointerIPvEaSEl(ptr noundef nonnull align 8 dereferenceable(8) %5, i64 noundef %6)
  ret void
}

; Function Attrs: mustprogress nounwind uwtable
define linkonce_odr hidden void @_ZN4llvm20pointer_union_detail19PointerUnionMembersINS_12PointerUnionIJPN5clang20TemplateTypeParmDeclEPNS3_23NonTypeTemplateParmDeclEPNS3_24TemplateTemplateParmDeclEEEENS_14PointerIntPairIPvLj2EiNS0_22PointerUnionUIntTraitsIJS5_S7_S9_EEENS_18PointerIntPairInfoISC_Lj2ESE_EEEELi2EJS9_EEC2Ev(ptr noundef nonnull align 8 dereferenceable(8) %0) unnamed_addr #0 comdat align 2 {
  %2 = alloca ptr, align 8
  store ptr %0, ptr %2, align 8
  %3 = load ptr, ptr %2, align 8
  call void @_ZN4llvm20pointer_union_detail19PointerUnionMembersINS_12PointerUnionIJPN5clang20TemplateTypeParmDeclEPNS3_23NonTypeTemplateParmDeclEPNS3_24TemplateTemplateParmDeclEEEENS_14PointerIntPairIPvLj2EiNS0_22PointerUnionUIntTraitsIJS5_S7_S9_EEENS_18PointerIntPairInfoISC_Lj2ESE_EEEELi3EJEEC2Ev(ptr noundef nonnull align 8 dereferenceable(8) %3)
  ret void
}

; Function Attrs: mustprogress nounwind uwtable
define linkonce_odr hidden void @_ZNR4llvm14PointerIntPairIPvLj2EiNS_20pointer_union_detail22PointerUnionUIntTraitsIJPN5clang20TemplateTypeParmDeclEPNS4_23NonTypeTemplateParmDeclEPNS4_24TemplateTemplateParmDeclEEEENS_18PointerIntPairInfoIS1_Lj2ESB_EEE18setFromOpaqueValueES1_(ptr noundef nonnull align 8 dereferenceable(8) %0, ptr noundef %1) #0 comdat align 2 {
  %3 = alloca ptr, align 8
  %4 = alloca ptr, align 8
  store ptr %0, ptr %3, align 8
  store ptr %1, ptr %4, align 8
  %5 = load ptr, ptr %3, align 8
  %6 = load ptr, ptr %4, align 8
  %7 = ptrtoint ptr %6 to i64
  %8 = getelementptr inbounds nuw %"class.llvm::PointerIntPair.431", ptr %5, i32 0, i32 0
  %9 = call noundef nonnull align 8 dereferenceable(8) ptr @_ZN4llvm6detail13PunnedPointerIPvEaSEl(ptr noundef nonnull align 8 dereferenceable(8) %8, i64 noundef %7)
  ret void
}

; Function Attrs: mustprogress nounwind uwtable
define linkonce_odr hidden void @_ZN4llvm14PointerIntPairIPvLj2EiNS_20pointer_union_detail22PointerUnionUIntTraitsIJPN5clang20TemplateTypeParmDeclEPNS4_23NonTypeTemplateParmDeclEPNS4_24TemplateTemplateParmDeclEEEENS_18PointerIntPairInfoIS1_Lj2ESB_EEEC2Ev(ptr noundef nonnull align 8 dereferenceable(8) %0) unnamed_addr #0 comdat align 2 {
  %2 = alloca ptr, align 8
  store ptr %0, ptr %2, align 8
  %3 = load ptr, ptr %2, align 8
  %4 = getelementptr inbounds nuw %"class.llvm::PointerIntPair.431", ptr %3, i32 0, i32 0
  call void @_ZN4llvm6detail13PunnedPointerIPvEC2El(ptr noundef nonnull align 8 dereferenceable(8) %4, i64 noundef 0)
  ret void
}

; Function Attrs: mustprogress nounwind uwtable
define linkonce_odr hidden void @_ZN4llvm20pointer_union_detail19PointerUnionMembersINS_12PointerUnionIJPN5clang20TemplateTypeParmDeclEPNS3_23NonTypeTemplateParmDeclEPNS3_24TemplateTemplateParmDeclEEEENS_14PointerIntPairIPvLj2EiNS0_22PointerUnionUIntTraitsIJS5_S7_S9_EEENS_18PointerIntPairInfoISC_Lj2ESE_EEEELi1EJS7_S9_EEC2Ev(ptr noundef nonnull align 8 dereferenceable(8) %0) unnamed_addr #0 comdat align 2 {
  %2 = alloca ptr, align 8
  store ptr %0, ptr %2, align 8
  %3 = load ptr, ptr %2, align 8
  call void @_ZN4llvm20pointer_union_detail19PointerUnionMembersINS_12PointerUnionIJPN5clang20TemplateTypeParmDeclEPNS3_23NonTypeTemplateParmDeclEPNS3_24TemplateTemplateParmDeclEEEENS_14PointerIntPairIPvLj2EiNS0_22PointerUnionUIntTraitsIJS5_S7_S9_EEENS_18PointerIntPairInfoISC_Lj2ESE_EEEELi2EJS9_EEC2Ev(ptr noundef nonnull align 8 dereferenceable(8) %3)
  ret void
}

; Function Attrs: mustprogress nounwind uwtable
define linkonce_odr hidden i64 @_ZN4llvm14PointerIntPairIPvLj2EiNS_20pointer_union_detail22PointerUnionUIntTraitsIJPN5clang20TemplateTypeParmDeclEPNS4_23NonTypeTemplateParmDeclEPNS4_24TemplateTemplateParmDeclEEEENS_18PointerIntPairInfoIS1_Lj2ESB_EEE18getFromOpaqueValueES1_(ptr noundef %0) #0 comdat align 2 {
  %2 = alloca %"class.llvm::PointerIntPair.431", align 8
  %3 = alloca ptr, align 8
  store ptr %0, ptr %3, align 8
  call void @_ZN4llvm14PointerIntPairIPvLj2EiNS_20pointer_union_detail22PointerUnionUIntTraitsIJPN5clang20TemplateTypeParmDeclEPNS4_23NonTypeTemplateParmDeclEPNS4_24TemplateTemplateParmDeclEEEENS_18PointerIntPairInfoIS1_Lj2ESB_EEEC2Ev(ptr noundef nonnull align 8 dereferenceable(8) %2)
  %4 = load ptr, ptr %3, align 8
  call void @_ZNR4llvm14PointerIntPairIPvLj2EiNS_20pointer_union_detail22PointerUnionUIntTraitsIJPN5clang20TemplateTypeParmDeclEPNS4_23NonTypeTemplateParmDeclEPNS4_24TemplateTemplateParmDeclEEEENS_18PointerIntPairInfoIS1_Lj2ESB_EEE18setFromOpaqueValueES1_(ptr noundef nonnull align 8 dereferenceable(8) %2, ptr noundef %4)
  %5 = getelementptr inbounds nuw %"class.llvm::PointerIntPair.431", ptr %2, i32 0, i32 0
  %6 = getelementptr inbounds nuw %"struct.llvm::detail::PunnedPointer.343", ptr %5, i32 0, i32 0
  %7 = load i64, ptr %6, align 8
  ret i64 %7
}

; Function Attrs: mustprogress nounwind uwtable
define linkonce_odr hidden void @_ZN4llvm20pointer_union_detail19PointerUnionMembersINS_12PointerUnionIJPN5clang20TemplateTypeParmDeclEPNS3_23NonTypeTemplateParmDeclEPNS3_24TemplateTemplateParmDeclEEEENS_14PointerIntPairIPvLj2EiNS0_22PointerUnionUIntTraitsIJS5_S7_S9_EEENS_18PointerIntPairInfoISC_Lj2ESE_EEEELi0EJS5_S7_S9_EEC2Ev(ptr noundef nonnull align 8 dereferenceable(8) %0) unnamed_addr #0 comdat align 2 {
  %2 = alloca ptr, align 8
  store ptr %0, ptr %2, align 8
  %3 = load ptr, ptr %2, align 8
  call void @_ZN4llvm20pointer_union_detail19PointerUnionMembersINS_12PointerUnionIJPN5clang20TemplateTypeParmDeclEPNS3_23NonTypeTemplateParmDeclEPNS3_24TemplateTemplateParmDeclEEEENS_14PointerIntPairIPvLj2EiNS0_22PointerUnionUIntTraitsIJS5_S7_S9_EEENS_18PointerIntPairInfoISC_Lj2ESE_EEEELi1EJS7_S9_EEC2Ev(ptr noundef nonnull align 8 dereferenceable(8) %3)
  ret void
}

; Function Attrs: mustprogress nounwind uwtable
define linkonce_odr hidden i64 @_ZN4llvm12PointerUnionIJPN5clang20TemplateTypeParmDeclEPNS1_23NonTypeTemplateParmDeclEPNS1_24TemplateTemplateParmDeclEEE18getFromOpaqueValueEPv(ptr noundef %0) #0 comdat align 2 {
  %2 = alloca %"class.llvm::PointerUnion.426", align 8
  %3 = alloca ptr, align 8
  %4 = alloca %"class.llvm::PointerIntPair.431", align 8
  store ptr %0, ptr %3, align 8
  call void @_ZN4llvm12PointerUnionIJPN5clang20TemplateTypeParmDeclEPNS1_23NonTypeTemplateParmDeclEPNS1_24TemplateTemplateParmDeclEEEC2Ev(ptr noundef nonnull align 8 dereferenceable(8) %2)
  %5 = load ptr, ptr %3, align 8
  %6 = call i64 @_ZN4llvm14PointerIntPairIPvLj2EiNS_20pointer_union_detail22PointerUnionUIntTraitsIJPN5clang20TemplateTypeParmDeclEPNS4_23NonTypeTemplateParmDeclEPNS4_24TemplateTemplateParmDeclEEEENS_18PointerIntPairInfoIS1_Lj2ESB_EEE18getFromOpaqueValueES1_(ptr noundef %5)
  %7 = getelementptr inbounds nuw %"class.llvm::PointerIntPair.431", ptr %4, i32 0, i32 0
  %8 = getelementptr inbounds nuw %"struct.llvm::detail::PunnedPointer.343", ptr %7, i32 0, i32 0
  store i64 %6, ptr %8, align 8
  %9 = getelementptr inbounds nuw %"class.llvm::pointer_union_detail::PointerUnionMembers.430", ptr %2, i32 0, i32 0
  call void @llvm.memcpy.p0.p0.i64(ptr align 8 %9, ptr align 8 %4, i64 8, i1 false)
  %10 = getelementptr inbounds nuw %"class.llvm::PointerUnion.426", ptr %2, i32 0, i32 0
  %11 = getelementptr inbounds nuw %"class.llvm::pointer_union_detail::PointerUnionMembers.427", ptr %10, i32 0, i32 0
  %12 = getelementptr inbounds nuw %"class.llvm::pointer_union_detail::PointerUnionMembers.428", ptr %11, i32 0, i32 0
  %13 = getelementptr inbounds nuw %"class.llvm::pointer_union_detail::PointerUnionMembers.429", ptr %12, i32 0, i32 0
  %14 = getelementptr inbounds nuw %"class.llvm::pointer_union_detail::PointerUnionMembers.430", ptr %13, i32 0, i32 0
  %15 = getelementptr inbounds nuw %"class.llvm::PointerIntPair.431", ptr %14, i32 0, i32 0
  %16 = getelementptr inbounds nuw %"struct.llvm::detail::PunnedPointer.343", ptr %15, i32 0, i32 0
  %17 = load i64, ptr %16, align 8
  ret i64 %17
}

; Function Attrs: mustprogress nounwind uwtable
define linkonce_odr hidden void @_ZN4llvm12PointerUnionIJPN5clang20TemplateTypeParmDeclEPNS1_23NonTypeTemplateParmDeclEPNS1_24TemplateTemplateParmDeclEEEC2Ev(ptr noundef nonnull align 8 dereferenceable(8) %0) unnamed_addr #0 comdat align 2 {
  %2 = alloca ptr, align 8
  store ptr %0, ptr %2, align 8
  %3 = load ptr, ptr %2, align 8
  call void @_ZN4llvm20pointer_union_detail19PointerUnionMembersINS_12PointerUnionIJPN5clang20TemplateTypeParmDeclEPNS3_23NonTypeTemplateParmDeclEPNS3_24TemplateTemplateParmDeclEEEENS_14PointerIntPairIPvLj2EiNS0_22PointerUnionUIntTraitsIJS5_S7_S9_EEENS_18PointerIntPairInfoISC_Lj2ESE_EEEELi0EJS5_S7_S9_EEC2Ev(ptr noundef nonnull align 8 dereferenceable(8) %3)
  ret void
}

; Function Attrs: mustprogress nounwind uwtable
define dso_local i64 @_ZN5clang20DeductionFailureInfo20getTemplateParameterEv(ptr noundef nonnull align 8 dereferenceable(48) %0) #0 align 2 {
  %2 = alloca %"class.llvm::PointerUnion.426", align 8
  %3 = alloca ptr, align 8
  store ptr %0, ptr %3, align 8
  %4 = load ptr, ptr %3, align 8
  %5 = load i16, ptr %4, align 8
  %6 = and i16 %5, 255
  %7 = zext i16 %6 to i32
  switch i32 %7, label %25 [
    i32 0, label %8
    i32 1, label %8
    i32 2, label %8
    i32 11, label %8
    i32 12, label %8
    i32 7, label %8
    i32 8, label %8
    i32 9, label %8
    i32 10, label %8
    i32 17, label %8
    i32 14, label %8
    i32 15, label %8
    i32 3, label %9
    i32 13, label %9
    i32 4, label %20
    i32 5, label %20
    i32 6, label %20
    i32 16, label %24
    i32 18, label %24
  ]

8:                                                ; preds = %1, %1, %1, %1, %1, %1, %1, %1, %1, %1, %1, %1
  call void @llvm.memset.p0.i64(ptr align 8 %2, i8 0, i64 8, i1 false)
  call void @_ZN4llvm12PointerUnionIJPN5clang20TemplateTypeParmDeclEPNS1_23NonTypeTemplateParmDeclEPNS1_24TemplateTemplateParmDeclEEEC2Ev(ptr noundef nonnull align 8 dereferenceable(8) %2)
  br label %26

9:                                                ; preds = %1, %1
  %10 = getelementptr inbounds nuw %"struct.clang::DeductionFailureInfo", ptr %4, i32 0, i32 1
  %11 = load ptr, ptr %10, align 8
  %12 = call i64 @_ZN4llvm12PointerUnionIJPN5clang20TemplateTypeParmDeclEPNS1_23NonTypeTemplateParmDeclEPNS1_24TemplateTemplateParmDeclEEE18getFromOpaqueValueEPv(ptr noundef %11)
  %13 = getelementptr inbounds nuw %"class.llvm::PointerUnion.426", ptr %2, i32 0, i32 0
  %14 = getelementptr inbounds nuw %"class.llvm::pointer_union_detail::PointerUnionMembers.427", ptr %13, i32 0, i32 0
  %15 = getelementptr inbounds nuw %"class.llvm::pointer_union_detail::PointerUnionMembers.428", ptr %14, i32 0, i32 0
  %16 = getelementptr inbounds nuw %"class.llvm::pointer_union_detail::PointerUnionMembers.429", ptr %15, i32 0, i32 0
  %17 = getelementptr inbounds nuw %"class.llvm::pointer_union_detail::PointerUnionMembers.430", ptr %16, i32 0, i32 0
  %18 = getelementptr inbounds nuw %"class.llvm::PointerIntPair.431", ptr %17, i32 0, i32 0
  %19 = getelementptr inbounds nuw %"struct.llvm::detail::PunnedPointer.343", ptr %18, i32 0, i32 0
  store i64 %12, ptr %19, align 8
  br label %26

20:                                               ; preds = %1, %1, %1
  %21 = getelementptr inbounds nuw %"struct.clang::DeductionFailureInfo", ptr %4, i32 0, i32 1
  %22 = load ptr, ptr %21, align 8
  %23 = getelementptr inbounds nuw %"struct.(anonymous namespace)::DFIParamWithArguments", ptr %22, i32 0, i32 1
  call void @llvm.memcpy.p0.p0.i64(ptr align 8 %2, ptr align 8 %23, i64 8, i1 false)
  br label %26

24:                                               ; preds = %1, %1
  br label %25

25:                                               ; preds = %24, %1
  call void @llvm.memset.p0.i64(ptr align 8 %2, i8 0, i64 8, i1 false)
  call void @_ZN4llvm12PointerUnionIJPN5clang20TemplateTypeParmDeclEPNS1_23NonTypeTemplateParmDeclEPNS1_24TemplateTemplateParmDeclEEEC2Ev(ptr noundef nonnull align 8 dereferenceable(8) %2)
  br label %26

26:                                               ; preds = %25, %20, %9, %8
  %27 = getelementptr inbounds nuw %"class.llvm::PointerUnion.426", ptr %2, i32 0, i32 0
  %28 = getelementptr inbounds nuw %"class.llvm::pointer_union_detail::PointerUnionMembers.427", ptr %27, i32 0, i32 0
  %29 = getelementptr inbounds nuw %"class.llvm::pointer_union_detail::PointerUnionMembers.428", ptr %28, i32 0, i32 0
  %30 = getelementptr inbounds nuw %"class.llvm::pointer_union_detail::PointerUnionMembers.429", ptr %29, i32 0, i32 0
  %31 = getelementptr inbounds nuw %"class.llvm::pointer_union_detail::PointerUnionMembers.430", ptr %30, i32 0, i32 0
  %32 = getelementptr inbounds nuw %"class.llvm::PointerIntPair.431", ptr %31, i32 0, i32 0
  %33 = getelementptr inbounds nuw %"struct.llvm::detail::PunnedPointer.343", ptr %32, i32 0, i32 0
  %34 = load i64, ptr %33, align 8
  ret i64 %34
}