; Function Attrs: mustprogress nofree norecurse nosync nounwind willreturn memory(read, inaccessiblemem: none) uwtable
define dso_local i64 @_ZN5clang20DeductionFailureInfo20getTemplateParameterEv(ptr nocapture noundef nonnull readonly align 8 dereferenceable(48) %0) local_unnamed_addr #3 align 2 {
  %2 = load i16, ptr %0, align 8
  %trunc = trunc i16 %2 to i8
  switch i8 %trunc, label %12 [
    i8 6, label %7
    i8 5, label %7
    i8 4, label %7
    i8 13, label %3
    i8 3, label %3
  ]

3:                                                ; preds = %1, %1
  %4 = getelementptr inbounds nuw i8, ptr %0, i64 8
  %5 = load ptr, ptr %4, align 8
  %6 = ptrtoint ptr %5 to i64
  br label %12

7:                                                ; preds = %1, %1, %1
  %8 = getelementptr inbounds nuw i8, ptr %0, i64 8
  %9 = load ptr, ptr %8, align 8
  %10 = getelementptr inbounds nuw i8, ptr %9, i64 48
  %11 = load i64, ptr %10, align 8
  br label %12

12:                                               ; preds = %1, %7, %3
  %.sroa.0.0 = phi i64 [ %11, %7 ], [ %6, %3 ], [ 0, %1 ]
  ret i64 %.sroa.0.0
}